; ModuleID = '50/2707.c'
source_filename = "50/2707.c"
target datalayout = "e-m:e-p270:32:32-p271:32:32-p272:64:64-i64:64-f80:128-n8:16:32:64-S128"
target triple = "x86_64-pc-linux-gnu"

@__const.main.a = private unnamed_addr constant [12 x i32] [i32 31, i32 28, i32 31, i32 30, i32 31, i32 30, i32 31, i32 31, i32 30, i32 31, i32 30, i32 31], align 16
@.str = private unnamed_addr constant [3 x i8] c"%d\00", align 1
@.str.1 = private unnamed_addr constant [2 x i8] c"\0A\00", align 1

; Function Attrs: noinline nounwind uwtable
define dso_local i32 @main() #0 {
  %1 = alloca i32, align 4
  %2 = alloca [12 x i32], align 16
  %3 = alloca i32, align 4
  %4 = alloca i32, align 4
  %5 = alloca i32, align 4
  %6 = alloca i32, align 4
  %7 = alloca i32, align 4
  %8 = alloca i32, align 4
  store i32 0, i32* %1, align 4
  %9 = bitcast [12 x i32]* %2 to i8*
  call void @llvm.memcpy.p0i8.p0i8.i64(i8* align 16 %9, i8* align 16 bitcast ([12 x i32]* @__const.main.a to i8*), i64 48, i1 false)
  store i32 0, i32* %6, align 4
  %10 = call i32 (i8*, ...) @__isoc99_scanf(i8* getelementptr inbounds ([3 x i8], [3 x i8]* @.str, i64 0, i64 0), i32* %7)
  store i32 0, i32* %3, align 4
  br label %11

11:                                               ; preds = %39, %0
  %12 = load i32, i32* %3, align 4
  %13 = icmp slt i32 %12, 12
  br i1 %13, label %14, label %42

14:                                               ; preds = %11
  %15 = load i32, i32* %6, align 4
  %16 = add nsw i32 %15, 13
  %17 = srem i32 %16, 7
  %18 = load i32, i32* %7, align 4
  %19 = sub nsw i32 5, %18
  %20 = add nsw i32 %19, 8
  %21 = srem i32 %20, 7
  %22 = icmp eq i32 %17, %21
  br i1 %22, label %23, label %32

23:                                               ; preds = %14
  %24 = load i32, i32* %3, align 4
  %25 = add nsw i32 %24, 1
  %26 = call i32 (i8*, ...) @printf(i8* getelementptr inbounds ([3 x i8], [3 x i8]* @.str, i64 0, i64 0), i32 %25)
  %27 = load i32, i32* %3, align 4
  %28 = icmp ne i32 %27, 11
  br i1 %28, label %29, label %31

29:                                               ; preds = %23
  %30 = call i32 (i8*, ...) @printf(i8* getelementptr inbounds ([2 x i8], [2 x i8]* @.str.1, i64 0, i64 0))
  br label %31

31:                                               ; preds = %29, %23
  br label %32

32:                                               ; preds = %31, %14
  %33 = load i32, i32* %6, align 4
  %34 = load i32, i32* %3, align 4
  %35 = sext i32 %34 to i64
  %36 = getelementptr inbounds [12 x i32], [12 x i32]* %2, i64 0, i64 %35
  %37 = load i32, i32* %36, align 4
  %38 = add nsw i32 %33, %37
  store i32 %38, i32* %6, align 4
  br label %39

39:                                               ; preds = %32
  %40 = load i32, i32* %3, align 4
  %41 = add nsw i32 %40, 1
  store i32 %41, i32* %3, align 4
  br label %11

42:                                               ; preds = %11
  ret i32 0
}

; Function Attrs: argmemonly nounwind willreturn
declare void @llvm.memcpy.p0i8.p0i8.i64(i8* noalias nocapture writeonly, i8* noalias nocapture readonly, i64, i1 immarg) #1

declare dso_local i32 @__isoc99_scanf(i8*, ...) #2

declare dso_local i32 @printf(i8*, ...) #2


!llvm.module.flags = !{!0}
!llvm.ident = !{!1}

!0 = !{i32 1, !"wchar_size", i32 4}
!1 = !{!"clang version 10.0.0-4ubuntu1 "}
