; ModuleID = 'source-C-CXX/49/2707.c'
source_filename = "source-C-CXX/49/2707.c"
target datalayout = "e-m:e-p270:32:32-p271:32:32-p272:64:64-i64:64-f80:128-n8:16:32:64-S128"
target triple = "x86_64-pc-linux-gnu"

@.str = private unnamed_addr constant [3 x i8] c"%d\00", align 1

; Function Attrs: nofree nounwind sspstrong uwtable
define dso_local i32 @main() local_unnamed_addr #0 {
  %1 = alloca i32, align 4
  %2 = bitcast i32* %1 to i8*
  call void @llvm.lifetime.start.p0i8(i64 4, i8* nonnull %2) #4
  %3 = call i32 (i8*, ...) @__isoc99_scanf(i8* getelementptr inbounds ([3 x i8], [3 x i8]* @.str, i64 0, i64 0), i32* nonnull %1)
  %4 = load i32, i32* %1, align 4, !tbaa !5
  %5 = sub i32 13, %4
  %6 = srem i32 %5, 7
  %7 = icmp eq i32 %6, 6
  br i1 %7, label %8, label %11

8:                                                ; preds = %0
  %9 = call i32 (i8*, ...) @printf(i8* nonnull dereferenceable(1) getelementptr inbounds ([3 x i8], [3 x i8]* @.str, i64 0, i64 0), i32 1)
  %10 = call i32 @putchar(i32 10)
  br label %11

11:                                               ; preds = %0, %8
  %12 = load i32, i32* %1, align 4, !tbaa !5
  %13 = sub i32 13, %12
  %14 = srem i32 %13, 7
  %15 = icmp eq i32 %14, 2
  br i1 %15, label %17, label %20

16:                                               ; preds = %92, %97
  call void @llvm.lifetime.end.p0i8(i64 4, i8* nonnull %2) #4
  ret i32 0

17:                                               ; preds = %11
  %18 = call i32 (i8*, ...) @printf(i8* nonnull dereferenceable(1) getelementptr inbounds ([3 x i8], [3 x i8]* @.str, i64 0, i64 0), i32 2)
  %19 = call i32 @putchar(i32 10)
  br label %20

20:                                               ; preds = %17, %11
  %21 = load i32, i32* %1, align 4, !tbaa !5
  %22 = sub i32 13, %21
  %23 = srem i32 %22, 7
  %24 = icmp eq i32 %23, 2
  br i1 %24, label %25, label %28

25:                                               ; preds = %20
  %26 = call i32 (i8*, ...) @printf(i8* nonnull dereferenceable(1) getelementptr inbounds ([3 x i8], [3 x i8]* @.str, i64 0, i64 0), i32 3)
  %27 = call i32 @putchar(i32 10)
  br label %28

28:                                               ; preds = %25, %20
  %29 = load i32, i32* %1, align 4, !tbaa !5
  %30 = sub i32 13, %29
  %31 = srem i32 %30, 7
  %32 = icmp eq i32 %31, 5
  br i1 %32, label %33, label %36

33:                                               ; preds = %28
  %34 = call i32 (i8*, ...) @printf(i8* nonnull dereferenceable(1) getelementptr inbounds ([3 x i8], [3 x i8]* @.str, i64 0, i64 0), i32 4)
  %35 = call i32 @putchar(i32 10)
  br label %36

36:                                               ; preds = %33, %28
  %37 = load i32, i32* %1, align 4, !tbaa !5
  %38 = sub i32 13, %37
  %39 = srem i32 %38, 7
  %40 = icmp eq i32 %39, 0
  br i1 %40, label %41, label %44

41:                                               ; preds = %36
  %42 = call i32 (i8*, ...) @printf(i8* nonnull dereferenceable(1) getelementptr inbounds ([3 x i8], [3 x i8]* @.str, i64 0, i64 0), i32 5)
  %43 = call i32 @putchar(i32 10)
  br label %44

44:                                               ; preds = %41, %36
  %45 = load i32, i32* %1, align 4, !tbaa !5
  %46 = sub i32 13, %45
  %47 = srem i32 %46, 7
  %48 = icmp eq i32 %47, 3
  br i1 %48, label %49, label %52

49:                                               ; preds = %44
  %50 = call i32 (i8*, ...) @printf(i8* nonnull dereferenceable(1) getelementptr inbounds ([3 x i8], [3 x i8]* @.str, i64 0, i64 0), i32 6)
  %51 = call i32 @putchar(i32 10)
  br label %52

52:                                               ; preds = %49, %44
  %53 = load i32, i32* %1, align 4, !tbaa !5
  %54 = sub i32 13, %53
  %55 = srem i32 %54, 7
  %56 = icmp eq i32 %55, 5
  br i1 %56, label %57, label %60

57:                                               ; preds = %52
  %58 = call i32 (i8*, ...) @printf(i8* nonnull dereferenceable(1) getelementptr inbounds ([3 x i8], [3 x i8]* @.str, i64 0, i64 0), i32 7)
  %59 = call i32 @putchar(i32 10)
  br label %60

60:                                               ; preds = %57, %52
  %61 = load i32, i32* %1, align 4, !tbaa !5
  %62 = sub i32 13, %61
  %63 = srem i32 %62, 7
  %64 = icmp eq i32 %63, 1
  br i1 %64, label %65, label %68

65:                                               ; preds = %60
  %66 = call i32 (i8*, ...) @printf(i8* nonnull dereferenceable(1) getelementptr inbounds ([3 x i8], [3 x i8]* @.str, i64 0, i64 0), i32 8)
  %67 = call i32 @putchar(i32 10)
  br label %68

68:                                               ; preds = %65, %60
  %69 = load i32, i32* %1, align 4, !tbaa !5
  %70 = sub i32 13, %69
  %71 = srem i32 %70, 7
  %72 = icmp eq i32 %71, 4
  br i1 %72, label %73, label %76

73:                                               ; preds = %68
  %74 = call i32 (i8*, ...) @printf(i8* nonnull dereferenceable(1) getelementptr inbounds ([3 x i8], [3 x i8]* @.str, i64 0, i64 0), i32 9)
  %75 = call i32 @putchar(i32 10)
  br label %76

76:                                               ; preds = %73, %68
  %77 = load i32, i32* %1, align 4, !tbaa !5
  %78 = sub i32 13, %77
  %79 = srem i32 %78, 7
  %80 = icmp eq i32 %79, 6
  br i1 %80, label %81, label %84

81:                                               ; preds = %76
  %82 = call i32 (i8*, ...) @printf(i8* nonnull dereferenceable(1) getelementptr inbounds ([3 x i8], [3 x i8]* @.str, i64 0, i64 0), i32 10)
  %83 = call i32 @putchar(i32 10)
  br label %84

84:                                               ; preds = %81, %76
  %85 = load i32, i32* %1, align 4, !tbaa !5
  %86 = sub i32 13, %85
  %87 = srem i32 %86, 7
  %88 = icmp eq i32 %87, 2
  br i1 %88, label %89, label %92

89:                                               ; preds = %84
  %90 = call i32 (i8*, ...) @printf(i8* nonnull dereferenceable(1) getelementptr inbounds ([3 x i8], [3 x i8]* @.str, i64 0, i64 0), i32 11)
  %91 = call i32 @putchar(i32 10)
  br label %92

92:                                               ; preds = %89, %84
  %93 = load i32, i32* %1, align 4, !tbaa !5
  %94 = sub i32 13, %93
  %95 = srem i32 %94, 7
  %96 = icmp eq i32 %95, 4
  br i1 %96, label %97, label %16

97:                                               ; preds = %92
  %98 = call i32 (i8*, ...) @printf(i8* nonnull dereferenceable(1) getelementptr inbounds ([3 x i8], [3 x i8]* @.str, i64 0, i64 0), i32 12)
  br label %16
}

; Function Attrs: argmemonly mustprogress nofree nosync nounwind willreturn
declare void @llvm.lifetime.start.p0i8(i64 immarg, i8* nocapture) #1

; Function Attrs: nofree nounwind
declare noundef i32 @__isoc99_scanf(i8* nocapture noundef readonly, ...) local_unnamed_addr #2

; Function Attrs: nofree nounwind
declare noundef i32 @printf(i8* nocapture noundef readonly, ...) local_unnamed_addr #2

; Function Attrs: argmemonly mustprogress nofree nosync nounwind willreturn
declare void @llvm.lifetime.end.p0i8(i64 immarg, i8* nocapture) #1

; Function Attrs: nofree nounwind
declare noundef i32 @putchar(i32 noundef) local_unnamed_addr #3


!llvm.module.flags = !{!0, !1, !2, !3}
!llvm.ident = !{!4}

!0 = !{i32 1, !"wchar_size", i32 4}
!1 = !{i32 7, !"PIC Level", i32 2}
!2 = !{i32 7, !"PIE Level", i32 2}
!3 = !{i32 7, !"uwtable", i32 1}
!4 = !{!"clang version 13.0.0"}
!5 = !{!6, !6, i64 0}
!6 = !{!"int", !7, i64 0}
!7 = !{!"omnipotent char", !8, i64 0}
!8 = !{!"Simple C/C++ TBAA"}
